target datalayout = "e-m:e-p270:32:32-p271:32:32-p272:64:64-i64:64-i128:128-f80:128-n8:16:32:64-S128"
target triple = "x86_64-unknown-linux-gnu"

%"class.cvc5::internal::NodeTemplate" = type { ptr }
%"class.cvc5::internal::AtomRequests::atom_iterator" = type { ptr, i64 }

; Function Attrs: mustprogress nounwind uwtable
define linkonce_odr hidden void @_ZN4cvc58internal12NodeTemplateILb0EED2Ev(ptr noundef nonnull align 8 dereferenceable(8) %this) unnamed_addr #5 comdat align 2 {
entry:
  %this.addr = alloca ptr, align 8
  store ptr %this, ptr %this.addr, align 8
  ret void
}

; Function Attrs: mustprogress nounwind uwtable
define linkonce_odr hidden void @_ZN4cvc58internal12AtomRequests13atom_iteratorC2ERKS1_m(ptr noundef nonnull align 8 dereferenceable(16) %this, ptr noundef nonnull align 8 dereferenceable(248) %requests, i64 noundef %start) unnamed_addr #5 comdat align 2 {
entry:
  %this.addr = alloca ptr, align 8
  %requests.addr = alloca ptr, align 8
  %start.addr = alloca i64, align 8
  store ptr %this, ptr %this.addr, align 8
  store ptr %requests, ptr %requests.addr, align 8
  store i64 %start, ptr %start.addr, align 8
  %this1 = load ptr, ptr %this.addr, align 8
  %d_requests = getelementptr inbounds %"class.cvc5::internal::AtomRequests::atom_iterator", ptr %this1, i32 0, i32 0
  %0 = load ptr, ptr %requests.addr, align 8
  store ptr %0, ptr %d_requests, align 8
  %d_index = getelementptr inbounds %"class.cvc5::internal::AtomRequests::atom_iterator", ptr %this1, i32 0, i32 1
  %1 = load i64, ptr %start.addr, align 8
  store i64 %1, ptr %d_index, align 8
  ret void
}

; Function Attrs: mustprogress nounwind uwtable
define linkonce_odr hidden void @_ZN4cvc58internal12NodeTemplateILb0EEC2ERKS2_(ptr noundef nonnull align 8 dereferenceable(8) %this, ptr noundef nonnull align 8 dereferenceable(8) %e) unnamed_addr #5 comdat align 2 {
entry:
  %this.addr = alloca ptr, align 8
  %e.addr = alloca ptr, align 8
  store ptr %this, ptr %this.addr, align 8
  store ptr %e, ptr %e.addr, align 8
  %this1 = load ptr, ptr %this.addr, align 8
  %0 = load ptr, ptr %e.addr, align 8
  %d_nv = getelementptr inbounds %"class.cvc5::internal::NodeTemplate", ptr %0, i32 0, i32 0
  %1 = load ptr, ptr %d_nv, align 8
  %d_nv2 = getelementptr inbounds %"class.cvc5::internal::NodeTemplate", ptr %this1, i32 0, i32 0
  store ptr %1, ptr %d_nv2, align 8
  ret void
}

; Function Attrs: mustprogress uwtable
define hidden { ptr, i64 } @_ZNK4cvc58internal12AtomRequests15getAtomIteratorENS0_12NodeTemplateILb0EEE(ptr noundef nonnull align 8 dereferenceable(248) %this, ptr noundef %trigger) #4 align 2 personality ptr @__gxx_personality_v0 {
entry:
  %retval = alloca %"class.cvc5::internal::AtomRequests::atom_iterator", align 8
  %this.addr = alloca ptr, align 8
  %trigger.indirect_addr = alloca ptr, align 8
  %agg.tmp = alloca %"class.cvc5::internal::NodeTemplate", align 8
  %exn.slot = alloca ptr, align 8
  %ehselector.slot = alloca i32, align 4
  store ptr %this, ptr %this.addr, align 8
  store ptr %trigger, ptr %trigger.indirect_addr, align 8
  %this1 = load ptr, ptr %this.addr, align 8
  call void @_ZN4cvc58internal12NodeTemplateILb0EEC2ERKS2_(ptr noundef nonnull align 8 dereferenceable(8) %agg.tmp, ptr noundef nonnull align 8 dereferenceable(8) %trigger)
  %call = invoke noundef i64 @_ZNK4cvc58internal12AtomRequests7getListENS0_12NodeTemplateILb0EEE(ptr noundef nonnull align 8 dereferenceable(248) %this1, ptr noundef %agg.tmp)
          to label %invoke.cont unwind label %lpad

invoke.cont:                                      ; preds = %entry
  invoke void @_ZN4cvc58internal12AtomRequests13atom_iteratorC2ERKS1_m(ptr noundef nonnull align 8 dereferenceable(16) %retval, ptr noundef nonnull align 8 dereferenceable(248) %this1, i64 noundef %call)
          to label %invoke.cont2 unwind label %lpad

invoke.cont2:                                     ; preds = %invoke.cont
  call void @_ZN4cvc58internal12NodeTemplateILb0EED2Ev(ptr noundef nonnull align 8 dereferenceable(8) %agg.tmp) #3
  %0 = load { ptr, i64 }, ptr %retval, align 8
  ret { ptr, i64 } %0

lpad:                                             ; preds = %invoke.cont, %entry
  %1 = landingpad { ptr, i32 }
          cleanup
  %2 = extractvalue { ptr, i32 } %1, 0
  store ptr %2, ptr %exn.slot, align 8
  %3 = extractvalue { ptr, i32 } %1, 1
  store i32 %3, ptr %ehselector.slot, align 4
  call void @_ZN4cvc58internal12NodeTemplateILb0EED2Ev(ptr noundef nonnull align 8 dereferenceable(8) %agg.tmp) #3
  br label %eh.resume

eh.resume:                                        ; preds = %lpad
  %exn = load ptr, ptr %exn.slot, align 8
  %sel = load i32, ptr %ehselector.slot, align 4
  %lpad.val = insertvalue { ptr, i32 } poison, ptr %exn, 0
  %lpad.val3 = insertvalue { ptr, i32 } %lpad.val, i32 %sel, 1
  resume { ptr, i32 } %lpad.val3
}