; Function Attrs: mustprogress uwtable
define hidden { ptr, i64 } @_ZNK4cvc58internal12AtomRequests15getAtomIteratorENS0_12NodeTemplateILb0EEE(ptr noundef nonnull align 8 dereferenceable(248) %this, ptr nocapture noundef readonly %trigger) local_unnamed_addr #3 align 2 personality ptr @__gxx_personality_v0 {
entry:
  %agg.tmp = alloca %"class.cvc5::internal::NodeTemplate", align 8
  %0 = load ptr, ptr %trigger, align 8
  store ptr %0, ptr %agg.tmp, align 8
  %call = call noundef i64 @_ZNK4cvc58internal12AtomRequests7getListENS0_12NodeTemplateILb0EEE(ptr noundef nonnull align 8 dereferenceable(248) %this, ptr noundef nonnull %agg.tmp)
  %.fca.0.insert = insertvalue { ptr, i64 } poison, ptr %this, 0
  %.fca.1.insert = insertvalue { ptr, i64 } %.fca.0.insert, i64 %call, 1
  ret { ptr, i64 } %.fca.1.insert
}